 GameGUIMP

 Timestamp is 62f268f7 (Tue Aug 09 17:02:31 2022)

 Preferred load address is 10000000

 Start         Length     Name                   Class
 0001:00000000 00004204H .text                   CODE
 0001:00004210 000005a6H .text$x                 CODE
 0002:00000000 0000031cH .idata$5                DATA
 0002:00000320 000014b0H .rdata                  DATA
 0002:000017d0 000000c4H .rdata$r                DATA
 0002:00001898 000009a8H .xdata$x                DATA
 0002:00002240 00000064H .idata$2                DATA
 0002:000022a4 00000014H .idata$3                DATA
 0002:000022b8 0000031cH .idata$4                DATA
 0002:000025d4 00000558H .idata$6                DATA
 0002:00002b30 0000012fH .edata                  DATA
 0003:00000000 00000004H .CRT$XCA                DATA
 0003:00000004 00000004H .CRT$XCL                DATA
 0003:00000008 00000004H .CRT$XCZ                DATA
 0003:0000000c 00000004H .CRT$XIA                DATA
 0003:00000010 00000004H .CRT$XIZ                DATA
 0003:00000020 000001d8H .data                   DATA
 0003:000001f8 00001130H .bss                    DATA
 0004:00000000 00000388H .rsrc$01                DATA
 0004:00000390 00001a18H .rsrc$02                DATA

  Address         Publics by Value              Rva+Base     Lib:Object

 0001:00000000       ??0CActionsListControl@@QAE@XZ 10001000 f   ActionsListControl.obj
 0001:00000020       ??1CActionsListControl@@UAE@XZ 10001020 f   ActionsListControl.obj
 0001:00000030       ?_GetBaseMessageMap@CActionsListControl@@KGPBUAFX_MSGMAP@@XZ 10001030 f   ActionsListControl.obj
 0001:00000040       ?GetMessageMap@CActionsListControl@@MBEPBUAFX_MSGMAP@@XZ 10001040 f   ActionsListControl.obj
 0001:00000050       ?OnLButtonDown@CActionsListControl@@QAEXIVCPoint@@@Z 10001050 f   ActionsListControl.obj
 0001:000000d0       ?OnKeyUp@CActionsListControl@@QAEXIII@Z 100010d0 f   ActionsListControl.obj
 0001:00000100       ?OnKeyDown@CActionsListControl@@QAEXIII@Z 10001100 f   ActionsListControl.obj
 0001:00000130       ?OnSetFocus@CActionsListControl@@QAEXPAVCWnd@@@Z 10001130 f   ActionsListControl.obj
 0001:00000180       ?OnKillFocus@CActionsListControl@@QAEXPAVCWnd@@@Z 10001180 f   ActionsListControl.obj
 0001:000001b0       ?PreTranslateMessage@CActionsListControl@@UAEHPAUtagMSG@@@Z 100011b0 f   ActionsListControl.obj
 0001:00000200       ?OnContextMenu@CActionsListControl@@QAEXPAVCWnd@@VCPoint@@@Z 10001200 f   ActionsListControl.obj
 0001:000002b0       ?OnButtonActionAdd@CActionsListControl@@QAEXXZ 100012b0 f   ActionsListControl.obj
 0001:00000350       ?OnButtonActionEdit@CActionsListControl@@QAEXXZ 10001350 f   ActionsListControl.obj
 0001:00000400       ?OnButtonActionRemove@CActionsListControl@@QAEXXZ 10001400 f   ActionsListControl.obj
 0001:00000450       ?OnUpdateButtonActionEdit@CActionsListControl@@QAEXPAVCCmdUI@@@Z 10001450 f   ActionsListControl.obj
 0001:00000480       ?OnUpdateButtonActionRemove@CActionsListControl@@QAEXPAVCCmdUI@@@Z 10001480 f   ActionsListControl.obj
 0001:000004b0       ??_GCActionsListControl@@UAEPAXI@Z 100014b0 f i ActionsListControl.obj
 0001:000004b0       ??_ECActionsListControl@@UAEPAXI@Z 100014b0 f i ActionsListControl.obj
 0001:000004e0       ??1CDlgEditButtonAction@@UAE@XZ 100014e0 f i ActionsListControl.obj
 0001:00000550       ??1CObject@@UAE@XZ         10001550 f i ActionsListControl.obj
 0001:00000560       ??_GCObject@@UAEPAXI@Z     10001560 f i ActionsListControl.obj
 0001:00000560       ??_ECObject@@UAEPAXI@Z     10001560 f i ActionsListControl.obj
 0001:00000590       ?Serialize@CObject@@UAEXAAVCArchive@@@Z 10001590 f i ActionsListControl.obj
 0001:000005a0       ?AssertValid@CObject@@UBEXXZ 100015a0 f i ActionsListControl.obj
 0001:000005b0       ?Dump@CObject@@UBEXAAVCDumpContext@@@Z 100015b0 f i ActionsListControl.obj
 0001:000005c0       ??_GCMenu@@UAEPAXI@Z       100015c0 f i ActionsListControl.obj
 0001:000005c0       ??_ECMenu@@UAEPAXI@Z       100015c0 f i ActionsListControl.obj
 0001:000005f0       ??1CMenu@@UAE@XZ           100015f0 f i ActionsListControl.obj
 0001:00000640       ?DoDataExchange@CWnd@@MAEXPAVCDataExchange@@@Z 10001640 f i ActionsListControl.obj
 0001:00000650       ?BeginModalState@CWnd@@UAEXXZ 10001650 f i ActionsListControl.obj
 0001:00000660       ?EndModalState@CWnd@@UAEXXZ 10001660 f i ActionsListControl.obj
 0001:00000670       ??_H@YGXPAXIHP6EX0@Z@Z     10001670 f i ActionsListControl.obj
 0001:000006a0       ??0CAxisListCtrl@@QAE@XZ   100016a0 f   AxisListCtrl.obj
 0001:000006c0       ??1CAxisListCtrl@@UAE@XZ   100016c0 f   AxisListCtrl.obj
 0001:000006d0       ?_GetBaseMessageMap@CAxisListCtrl@@KGPBUAFX_MSGMAP@@XZ 100016d0 f   AxisListCtrl.obj
 0001:000006e0       ?GetMessageMap@CAxisListCtrl@@MBEPBUAFX_MSGMAP@@XZ 100016e0 f   AxisListCtrl.obj
 0001:000006f0       ?OnLButtonDown@CAxisListCtrl@@IAEXIVCPoint@@@Z 100016f0 f   AxisListCtrl.obj
 0001:00000730       ?OnKeyUp@CAxisListCtrl@@IAEXIII@Z 10001730 f   AxisListCtrl.obj
 0001:00000770       ?OnKeyDown@CAxisListCtrl@@IAEXIII@Z 10001770 f   AxisListCtrl.obj
 0001:000007b0       ?OnSetFocus@CAxisListCtrl@@IAEXPAVCWnd@@@Z 100017b0 f   AxisListCtrl.obj
 0001:00000800       ?OnKillFocus@CAxisListCtrl@@IAEXPAVCWnd@@@Z 10001800 f   AxisListCtrl.obj
 0001:00000830       ?PreTranslateMessage@CAxisListCtrl@@UAEHPAUtagMSG@@@Z 10001830 f   AxisListCtrl.obj
 0001:00000880       ??_GCAxisListCtrl@@UAEPAXI@Z 10001880 f i AxisListCtrl.obj
 0001:00000880       ??_ECAxisListCtrl@@UAEPAXI@Z 10001880 f i AxisListCtrl.obj
 0001:000008b0       ??0CConsoleSymbolsCombo@@QAE@XZ 100018b0 f   ConsoleSymbolsCombo.obj
 0001:000008d0       ??1CConsoleSymbolsCombo@@UAE@XZ 100018d0 f   ConsoleSymbolsCombo.obj
 0001:000008e0       ?_GetBaseMessageMap@CConsoleSymbolsCombo@@KGPBUAFX_MSGMAP@@XZ 100018e0 f   ConsoleSymbolsCombo.obj
 0001:000008f0       ?GetMessageMap@CConsoleSymbolsCombo@@MBEPBUAFX_MSGMAP@@XZ 100018f0 f   ConsoleSymbolsCombo.obj
 0001:00000900       ?PreTranslateMessage@CConsoleSymbolsCombo@@UAEHPAUtagMSG@@@Z 10001900 f   ConsoleSymbolsCombo.obj
 0001:00000a60       ?OnSelchange@CConsoleSymbolsCombo@@IAEXXZ 10001a60 f   ConsoleSymbolsCombo.obj
 0001:00000a80       ??_GCConsoleSymbolsCombo@@UAEPAXI@Z 10001a80 f i ConsoleSymbolsCombo.obj
 0001:00000a80       ??_ECConsoleSymbolsCombo@@UAEPAXI@Z 10001a80 f i ConsoleSymbolsCombo.obj
 0001:00000ab0       ??0CDlgAudioQuality@@QAE@PAVCWnd@@@Z 10001ab0 f   DlgAudioQuality.obj
 0001:00000ae0       ?DoDataExchange@CDlgAudioQuality@@MAEXPAVCDataExchange@@@Z 10001ae0 f   DlgAudioQuality.obj
 0001:00000b20       ?_GetBaseMessageMap@CDlgAudioQuality@@KGPBUAFX_MSGMAP@@XZ 10001b20 f   DlgAudioQuality.obj
 0001:00000b30       ?GetMessageMap@CDlgAudioQuality@@MBEPBUAFX_MSGMAP@@XZ 10001b30 f   DlgAudioQuality.obj
 0001:00000b40       ??_GCDlgAudioQuality@@UAEPAXI@Z 10001b40 f i DlgAudioQuality.obj
 0001:00000b40       ??_ECDlgAudioQuality@@UAEPAXI@Z 10001b40 f i DlgAudioQuality.obj
 0001:00000b70       ??1CDlgAudioQuality@@UAE@XZ 10001b70 f i DlgAudioQuality.obj
 0001:00000b80       ??0CDlgConsole@@QAE@PAVCWnd@@@Z 10001b80 f   DlgConsole.obj
 0001:00000c10       ?DoDataExchange@CDlgConsole@@MAEXPAVCDataExchange@@@Z 10001c10 f   DlgConsole.obj
 0001:00000c70       ?_GetBaseMessageMap@CDlgConsole@@KGPBUAFX_MSGMAP@@XZ 10001c70 f   DlgConsole.obj
 0001:00000c80       ?GetMessageMap@CDlgConsole@@MBEPBUAFX_MSGMAP@@XZ 10001c80 f   DlgConsole.obj
 0001:00000c90       ?OnInitDialog@CDlgConsole@@MAEHXZ 10001c90 f   DlgConsole.obj
 0001:00000da0       ??_GCDlgConsole@@UAEPAXI@Z 10001da0 f i DlgConsole.obj
 0001:00000da0       ??_ECDlgConsole@@UAEPAXI@Z 10001da0 f i DlgConsole.obj
 0001:00000dd0       ??1CDlgConsole@@UAE@XZ     10001dd0 f i DlgConsole.obj
 0001:00000e40       ??1?$CDynamicArrayIterator@VCShellSymbol@@@@QAE@XZ 10001e40 f i DlgConsole.obj
 0001:00000e50       ??0CDlgEditButtonAction@@QAE@PAVCButtonAction@@PAVCWnd@@@Z 10001e50 f   DlgEditButtonAction.obj
 0001:00000f00       ?DoDataExchange@CDlgEditButtonAction@@MAEXPAVCDataExchange@@@Z 10001f00 f   DlgEditButtonAction.obj
 0001:00000fe0       ?_GetBaseMessageMap@CDlgEditButtonAction@@KGPBUAFX_MSGMAP@@XZ 10001fe0 f   DlgEditButtonAction.obj
 0001:00000ff0       ?GetMessageMap@CDlgEditButtonAction@@MBEPBUAFX_MSGMAP@@XZ 10001ff0 f   DlgEditButtonAction.obj
 0001:00001000       ??_GCDlgEditButtonAction@@UAEPAXI@Z 10002000 f i DlgEditButtonAction.obj
 0001:00001000       ??_ECDlgEditButtonAction@@UAEPAXI@Z 10002000 f i DlgEditButtonAction.obj
 0001:00001030       ??0CDlgPlayerAppearance@@QAE@AAVCPlayerCharacter@@PAVCWnd@@@Z 10002030 f   DlgPlayerAppearance.obj
 0001:000010c0       ?DoDataExchange@CDlgPlayerAppearance@@MAEXPAVCDataExchange@@@Z 100020c0 f   DlgPlayerAppearance.obj
 0001:000010e0       ?_GetBaseMessageMap@CDlgPlayerAppearance@@KGPBUAFX_MSGMAP@@XZ 100020e0 f   DlgPlayerAppearance.obj
 0001:000010f0       ?GetMessageMap@CDlgPlayerAppearance@@MBEPBUAFX_MSGMAP@@XZ 100020f0 f   DlgPlayerAppearance.obj
 0001:00001100       ??_GCDlgPlayerAppearance@@UAEPAXI@Z 10002100 f i DlgPlayerAppearance.obj
 0001:00001100       ??_ECDlgPlayerAppearance@@UAEPAXI@Z 10002100 f i DlgPlayerAppearance.obj
 0001:00001130       ??1CDlgPlayerAppearance@@UAE@XZ 10002130 f i DlgPlayerAppearance.obj
 0001:000011b0       ??_ECComboBox@@UAEPAXI@Z   100021b0 f i DlgPlayerAppearance.obj
 0001:000011b0       ??_GCComboBox@@UAEPAXI@Z   100021b0 f i DlgPlayerAppearance.obj
 0001:000011e0       ??0CDlgPlayerControls@@QAE@AAVCControls@@PAVCWnd@@@Z 100021e0 f   DlgPlayerControls.obj
 0001:000012f0       ?DoDataExchange@CDlgPlayerControls@@MAEXPAVCDataExchange@@@Z 100022f0 f   DlgPlayerControls.obj
 0001:00001610       ?_GetBaseMessageMap@CDlgPlayerControls@@KGPBUAFX_MSGMAP@@XZ 10002610 f   DlgPlayerControls.obj
 0001:00001620       ?GetMessageMap@CDlgPlayerControls@@MBEPBUAFX_MSGMAP@@XZ 10002620 f   DlgPlayerControls.obj
 0001:00001630       ?FillActionsList@CDlgPlayerControls@@QAEXXZ 10002630 f   DlgPlayerControls.obj
 0001:00001750       ?FillAxisList@CDlgPlayerControls@@QAEXXZ 10002750 f   DlgPlayerControls.obj
 0001:00001850       ?OnInitDialog@CDlgPlayerControls@@UAEHXZ 10002850 f   DlgPlayerControls.obj
 0001:00001a00       ?SetFirstAndSecondButtonNames@CDlgPlayerControls@@QAEXXZ 10002a00 f   DlgPlayerControls.obj
 0001:00001aa0       ?ActivatePressKey@CDlgPlayerControls@@QAEXPAD@Z 10002aa0 f   DlgPlayerControls.obj
 0001:00001e10       ?OnSetfocusEditFirstControl@CDlgPlayerControls@@QAEXXZ 10002e10 f   DlgPlayerControls.obj
 0001:00001e20       ?OnSetfocusEditSecondControl@CDlgPlayerControls@@QAEXXZ 10002e20 f   DlgPlayerControls.obj
 0001:00001e30       ?GetSelectedButtonAction@CDlgPlayerControls@@QAEPAVCButtonAction@@XZ 10002e30 f   DlgPlayerControls.obj
 0001:00001e80       ?OnFirstControlNone@CDlgPlayerControls@@QAEXXZ 10002e80 f   DlgPlayerControls.obj
 0001:00001eb0       ?OnSecondControlNone@CDlgPlayerControls@@QAEXXZ 10002eb0 f   DlgPlayerControls.obj
 0001:00001ee0       ?OnDefault@CDlgPlayerControls@@QAEXXZ 10002ee0 f   DlgPlayerControls.obj
 0001:00001f20       ?OnSelchangeControlerAxis@CDlgPlayerControls@@QAEXXZ 10002f20 f   DlgPlayerControls.obj
 0001:00001f80       ?OnMoveControlUp@CDlgPlayerControls@@QAEXXZ 10002f80 f   DlgPlayerControls.obj
 0001:00002080       ?OnMoveControlDown@CDlgPlayerControls@@QAEXXZ 10003080 f   DlgPlayerControls.obj
 0001:00002180       ?OnButtonActionAdd@CDlgPlayerControls@@QAEXXZ 10003180 f   DlgPlayerControls.obj
 0001:00002190       ?OnButtonActionEdit@CDlgPlayerControls@@QAEXXZ 10003190 f   DlgPlayerControls.obj
 0001:000021a0       ?OnButtonActionRemove@CDlgPlayerControls@@QAEXXZ 100031a0 f   DlgPlayerControls.obj
 0001:000021b0       ??_GCDlgPlayerControls@@UAEPAXI@Z 100031b0 f i DlgPlayerControls.obj
 0001:000021b0       ??_ECDlgPlayerControls@@UAEPAXI@Z 100031b0 f i DlgPlayerControls.obj
 0001:000021e0       ??1CDlgPlayerControls@@UAE@XZ 100031e0 f i DlgPlayerControls.obj
 0001:00002290       ??_GCSliderCtrl@@UAEPAXI@Z 10003290 f i DlgPlayerControls.obj
 0001:00002290       ??_ECSliderCtrl@@UAEPAXI@Z 10003290 f i DlgPlayerControls.obj
 0001:000022c0       ??0CDlgPlayerSettings@@QAE@PAVCWnd@@@Z 100032c0 f   DlgPlayerSettings.obj
 0001:00002340       ?DoDataExchange@CDlgPlayerSettings@@MAEXPAVCDataExchange@@@Z 10003340 f   DlgPlayerSettings.obj
 0001:000023b0       ?_GetBaseMessageMap@CDlgPlayerSettings@@KGPBUAFX_MSGMAP@@XZ 100033b0 f   DlgPlayerSettings.obj
 0001:000023c0       ?GetMessageMap@CDlgPlayerSettings@@MBEPBUAFX_MSGMAP@@XZ 100033c0 f   DlgPlayerSettings.obj
 0001:000023d0       ?OnPlayerAppearance@CDlgPlayerSettings@@QAEXXZ 100033d0 f   DlgPlayerSettings.obj
 0001:000023e0       ?InitPlayersAndControlsLists@CDlgPlayerSettings@@QAEXXZ 100033e0 f   DlgPlayerSettings.obj
 0001:000024b0       ?OnInitDialog@CDlgPlayerSettings@@UAEHXZ 100034b0 f   DlgPlayerSettings.obj
 0001:000024d0       ?OnEditControls@CDlgPlayerSettings@@QAEXXZ 100034d0 f   DlgPlayerSettings.obj
 0001:00002680       ?OnRenameControls@CDlgPlayerSettings@@QAEXXZ 10003680 f   DlgPlayerSettings.obj
 0001:00002730       ?OnRenamePlayer@CDlgPlayerSettings@@QAEXXZ 10003730 f   DlgPlayerSettings.obj
 0001:00002840       ??_GCDlgPlayerSettings@@UAEPAXI@Z 10003840 f i DlgPlayerSettings.obj
 0001:00002840       ??_ECDlgPlayerSettings@@UAEPAXI@Z 10003840 f i DlgPlayerSettings.obj
 0001:00002870       ??1CDlgPlayerSettings@@UAE@XZ 10003870 f i DlgPlayerSettings.obj
 0001:000028d0       ??1CDlgRenameControls@@UAE@XZ 100038d0 f i DlgPlayerSettings.obj
 0001:00002920       ??_ECListBox@@UAEPAXI@Z    10003920 f i DlgPlayerSettings.obj
 0001:00002920       ??_GCListBox@@UAEPAXI@Z    10003920 f i DlgPlayerSettings.obj
 0001:00002950       ??0CDlgRenameControls@@QAE@PAVCWnd@@@Z 10003950 f   DlgRenameControls.obj
 0001:000029c0       ?DoDataExchange@CDlgRenameControls@@MAEXPAVCDataExchange@@@Z 100039c0 f   DlgRenameControls.obj
 0001:000029e0       ?_GetBaseMessageMap@CDlgRenameControls@@KGPBUAFX_MSGMAP@@XZ 100039e0 f   DlgRenameControls.obj
 0001:000029f0       ?GetMessageMap@CDlgRenameControls@@MBEPBUAFX_MSGMAP@@XZ 100039f0 f   DlgRenameControls.obj
 0001:00002a00       ??_GCDlgRenameControls@@UAEPAXI@Z 10003a00 f i DlgRenameControls.obj
 0001:00002a00       ??_ECDlgRenameControls@@UAEPAXI@Z 10003a00 f i DlgRenameControls.obj
 0001:00002a30       ??0CDlgSelectPlayer@@QAE@PAVCWnd@@@Z 10003a30 f   DlgSelectPlayer.obj
 0001:00002ab0       ?DoDataExchange@CDlgSelectPlayer@@MAEXPAVCDataExchange@@@Z 10003ab0 f   DlgSelectPlayer.obj
 0001:00002b50       ?_GetBaseMessageMap@CDlgSelectPlayer@@KGPBUAFX_MSGMAP@@XZ 10003b50 f   DlgSelectPlayer.obj
 0001:00002b60       ?GetMessageMap@CDlgSelectPlayer@@MBEPBUAFX_MSGMAP@@XZ 10003b60 f   DlgSelectPlayer.obj
 0001:00002b70       ?OnInitDialog@CDlgSelectPlayer@@MAEHXZ 10003b70 f   DlgSelectPlayer.obj
 0001:00002c20       ?OnSelchangeComboAvailablePlayers@CDlgSelectPlayer@@IAEXXZ 10003c20 f   DlgSelectPlayer.obj
 0001:00002c60       ?OnSelchangeComboAvailableControls@CDlgSelectPlayer@@IAEXXZ 10003c60 f   DlgSelectPlayer.obj
 0001:00002ca0       ??_GCDlgSelectPlayer@@UAEPAXI@Z 10003ca0 f i DlgSelectPlayer.obj
 0001:00002ca0       ??_ECDlgSelectPlayer@@UAEPAXI@Z 10003ca0 f i DlgSelectPlayer.obj
 0001:00002cd0       ??1CDlgSelectPlayer@@UAE@XZ 10003cd0 f i DlgSelectPlayer.obj
 0001:00002d30       ??0CDlgVideoQuality@@QAE@PAVCWnd@@@Z 10003d30 f   DlgVideoQuality.obj
 0001:00002d60       ?DoDataExchange@CDlgVideoQuality@@MAEXPAVCDataExchange@@@Z 10003d60 f   DlgVideoQuality.obj
 0001:00002da0       ?_GetBaseMessageMap@CDlgVideoQuality@@KGPBUAFX_MSGMAP@@XZ 10003da0 f   DlgVideoQuality.obj
 0001:00002db0       ?GetMessageMap@CDlgVideoQuality@@MBEPBUAFX_MSGMAP@@XZ 10003db0 f   DlgVideoQuality.obj
 0001:00002dc0       ??_ECDlgVideoQuality@@UAEPAXI@Z 10003dc0 f i DlgVideoQuality.obj
 0001:00002dc0       ??_GCDlgVideoQuality@@UAEPAXI@Z 10003dc0 f i DlgVideoQuality.obj
 0001:00002df0       ??1CDlgVideoQuality@@UAE@XZ 10003df0 f i DlgVideoQuality.obj
 0001:00002e00       ??0CEditConsole@@QAE@XZ    10003e00 f   EditConsole.obj
 0001:00002e20       ??1CEditConsole@@UAE@XZ    10003e20 f   EditConsole.obj
 0001:00002e30       ?_GetBaseMessageMap@CEditConsole@@KGPBUAFX_MSGMAP@@XZ 10003e30 f   EditConsole.obj
 0001:00002e40       ?GetMessageMap@CEditConsole@@MBEPBUAFX_MSGMAP@@XZ 10003e40 f   EditConsole.obj
 0001:00002e50       ?SetTextFromConsole@CEditConsole@@QAEXXZ 10003e50 f   EditConsole.obj
 0001:00002ef0       ?PreTranslateMessage@CEditConsole@@UAEHPAUtagMSG@@@Z 10003ef0 f   EditConsole.obj
 0001:000030e0       ??_ECEditConsole@@UAEPAXI@Z 100040e0 f i EditConsole.obj
 0001:000030e0       ??_GCEditConsole@@UAEPAXI@Z 100040e0 f i EditConsole.obj
 0001:00003110       ?Initialize@@YAXABVCTFileName@@@Z 10004110 f   GameGUI.obj
 0001:00003290       ?End@@YAXXZ                10004290 f   GameGUI.obj
 0001:000032a0       ?QuickTest@@YAXABVCTFileName@@PAVCDrawPort@@PAVCViewPort@@@Z 100042a0 f   GameGUI.obj
 0001:000032c0       ?OnInvokeConsole@@YAXXZ    100042c0 f   GameGUI.obj
 0001:000032d0       ?OnPlayerSettings@@YAXXZ   100042d0 f   GameGUI.obj
 0001:000032e0       ?OnAudioQuality@@YAXXZ     100042e0 f   GameGUI.obj
 0001:000032f0       ?OnVideoQuality@@YAXXZ     100042f0 f   GameGUI.obj
 0001:00003300       ?OnSelectPlayerAndControls@@YAXXZ 10004300 f   GameGUI.obj
 0001:00003310       _GAMEGUI_Create            10004310 f   GameGUI.obj
 0001:00003370       ?OnInvokeConsole@CGameGUI@@SAXXZ 10004370 f   GameGUI.obj
 0001:00003490       ?OnPlayerSettings@CGameGUI@@SAXXZ 10004490 f   GameGUI.obj
 0001:000035a0       ?OnAudioQuality@CGameGUI@@SAXXZ 100045a0 f   GameGUI.obj
 0001:00003680       ?OnVideoQuality@CGameGUI@@SAXXZ 10004680 f   GameGUI.obj
 0001:00003760       ?OnSelectPlayerAndControls@CGameGUI@@SAXXZ 10004760 f   GameGUI.obj
 0001:00003870       ??0CLocalPlayersList@@QAE@XZ 10004870 f   LocalPlayersList.obj
 0001:00003890       ??1CLocalPlayersList@@UAE@XZ 10004890 f   LocalPlayersList.obj
 0001:000038a0       ?_GetBaseMessageMap@CLocalPlayersList@@KGPBUAFX_MSGMAP@@XZ 100048a0 f   LocalPlayersList.obj
 0001:000038b0       ?GetMessageMap@CLocalPlayersList@@MBEPBUAFX_MSGMAP@@XZ 100048b0 f   LocalPlayersList.obj
 0001:000038c0       ??_GCLocalPlayersList@@UAEPAXI@Z 100048c0 f i LocalPlayersList.obj
 0001:000038c0       ??_ECLocalPlayersList@@UAEPAXI@Z 100048c0 f i LocalPlayersList.obj
 0001:000038f0       ??0CPressKeyEditControl@@QAE@XZ 100048f0 f   PressKeyEditControl.obj
 0001:00003910       ??1CPressKeyEditControl@@UAE@XZ 10004910 f   PressKeyEditControl.obj
 0001:00003920       ?_GetBaseMessageMap@CPressKeyEditControl@@KGPBUAFX_MSGMAP@@XZ 10004920 f   PressKeyEditControl.obj
 0001:00003930       ?GetMessageMap@CPressKeyEditControl@@MBEPBUAFX_MSGMAP@@XZ 10004930 f   PressKeyEditControl.obj
 0001:00003940       ?PreTranslateMessage@CPressKeyEditControl@@UAEHPAUtagMSG@@@Z 10004940 f   PressKeyEditControl.obj
 0001:00003990       ??_GCPressKeyEditControl@@UAEPAXI@Z 10004990 f i PressKeyEditControl.obj
 0001:00003990       ??_ECPressKeyEditControl@@UAEPAXI@Z 10004990 f i PressKeyEditControl.obj
 0001:000039c0       ?DrawItem@CListCtrl@@UAEXPAUtagDRAWITEMSTRUCT@@@Z 100049c0 f   mfc42:MFC42.DLL
 0001:000039c6       ?SetOccDialogInfo@CWnd@@MAEHPAU_AFX_OCC_DIALOG_INFO@@@Z 100049c6 f   mfc42:MFC42.DLL
 0001:000039cc       ?IsFrameWnd@CWnd@@UBEHXZ   100049cc f   mfc42:MFC42.DLL
 0001:000039d2       ?CheckAutoCenter@CWnd@@UAEHXZ 100049d2 f   mfc42:MFC42.DLL
 0001:000039d8       ?OnChildNotify@CListCtrl@@MAEHIIJPAJ@Z 100049d8 f   mfc42:MFC42.DLL
 0001:000039de       ?PostNcDestroy@CWnd@@MAEXXZ 100049de f   mfc42:MFC42.DLL
 0001:000039e4       ?DefWindowProcA@CWnd@@MAEJIIJ@Z 100049e4 f   mfc42:MFC42.DLL
 0001:000039ea       ?OnWndMsg@CWnd@@MAEHIIJPAJ@Z 100049ea f   mfc42:MFC42.DLL
 0001:000039f0       ?WindowProc@CWnd@@MAEJIIJ@Z 100049f0 f   mfc42:MFC42.DLL
 0001:000039f6       ?OnAmbientProperty@CWnd@@UAEHPAVCOleControlSite@@JPAUtagVARIANT@@@Z 100049f6 f   mfc42:MFC42.DLL
 0001:000039fc       ?GetSuperWndProcAddr@CWnd@@MAEPAP6GJPAUHWND__@@IIJ@ZXZ 100049fc f   mfc42:MFC42.DLL
 0001:00003a02       ?OnNotify@CWnd@@MAEHIJPAJ@Z 10004a02 f   mfc42:MFC42.DLL
 0001:00003a08       ?OnCommand@CWnd@@MAEHIJ@Z  10004a08 f   mfc42:MFC42.DLL
 0001:00003a0e       ?EndModalLoop@CWnd@@UAEXH@Z 10004a0e f   mfc42:MFC42.DLL
 0001:00003a14       ?ContinueModal@CWnd@@UAEHXZ 10004a14 f   mfc42:MFC42.DLL
 0001:00003a1a       ?WinHelpA@CWnd@@UAEXKI@Z   10004a1a f   mfc42:MFC42.DLL
 0001:00003a20       ?GetScrollBarCtrl@CWnd@@UBEPAVCScrollBar@@H@Z 10004a20 f   mfc42:MFC42.DLL
 0001:00003a26       ?OnToolHitTest@CWnd@@UBEHVCPoint@@PAUtagTOOLINFOA@@@Z 10004a26 f   mfc42:MFC42.DLL
 0001:00003a2c       ?CalcWindowRect@CWnd@@UAEXPAUtagRECT@@I@Z 10004a2c f   mfc42:MFC42.DLL
 0001:00003a32       ?PreCreateWindow@CWnd@@UAEHAAUtagCREATESTRUCTA@@@Z 10004a32 f   mfc42:MFC42.DLL
 0001:00003a38       ?DestroyWindow@CWnd@@UAEHXZ 10004a38 f   mfc42:MFC42.DLL
 0001:00003a3e       ?Create@CWnd@@UAEHPBD0KABUtagRECT@@PAV1@IPAUCCreateContext@@@Z 10004a3e f   mfc42:MFC42.DLL
 0001:00003a44       ?PreSubclassWindow@CWnd@@UAEXXZ 10004a44 f   mfc42:MFC42.DLL
 0001:00003a4a       ?GetConnectionHook@CCmdTarget@@MAEPAUIConnectionPoint@@ABU_GUID@@@Z 10004a4a f   mfc42:MFC42.DLL
 0001:00003a50       ?GetExtraConnectionPoints@CCmdTarget@@MAEHPAVCPtrArray@@@Z 10004a50 f   mfc42:MFC42.DLL
 0001:00003a56       ?GetInterfaceHook@CCmdTarget@@UAEPAUIUnknown@@PBX@Z 10004a56 f   mfc42:MFC42.DLL
 0001:00003a5c       ?OnCreateAggregates@CCmdTarget@@UAEHXZ 10004a5c f   mfc42:MFC42.DLL
 0001:00003a62       ?GetEventSinkMap@CCmdTarget@@MBEPBUAFX_EVENTSINKMAP@@XZ 10004a62 f   mfc42:MFC42.DLL
 0001:00003a68       ?GetInterfaceMap@CCmdTarget@@MBEPBUAFX_INTERFACEMAP@@XZ 10004a68 f   mfc42:MFC42.DLL
 0001:00003a6e       ?GetConnectionMap@CCmdTarget@@MBEPBUAFX_CONNECTIONMAP@@XZ 10004a6e f   mfc42:MFC42.DLL
 0001:00003a74       ?GetDispatchMap@CCmdTarget@@MBEPBUAFX_DISPMAP@@XZ 10004a74 f   mfc42:MFC42.DLL
 0001:00003a7a       ?GetCommandMap@CCmdTarget@@MBEPBUAFX_OLECMDMAP@@XZ 10004a7a f   mfc42:MFC42.DLL
 0001:00003a80       ?GetTypeLib@CCmdTarget@@UAEJKPAPAUITypeLib@@@Z 10004a80 f   mfc42:MFC42.DLL
 0001:00003a86       ?GetTypeLibCache@CCmdTarget@@UAEPAVCTypeLibCache@@XZ 10004a86 f   mfc42:MFC42.DLL
 0001:00003a8c       ?GetTypeInfoCount@CCmdTarget@@UAEIXZ 10004a8c f   mfc42:MFC42.DLL
 0001:00003a92       ?GetDispatchIID@CCmdTarget@@UAEHPAU_GUID@@@Z 10004a92 f   mfc42:MFC42.DLL
 0001:00003a98       ?IsInvokeAllowed@CCmdTarget@@UAEHJ@Z 10004a98 f   mfc42:MFC42.DLL
 0001:00003a9e       ?OnFinalRelease@CWnd@@UAEXXZ 10004a9e f   mfc42:MFC42.DLL
 0001:00003aa4       ?OnCmdMsg@CCmdTarget@@UAEHIHPAXPAUAFX_CMDHANDLERINFO@@@Z 10004aa4 f   mfc42:MFC42.DLL
 0001:00003aaa       ?GetRuntimeClass@CListCtrl@@UBEPAUCRuntimeClass@@XZ 10004aaa f   mfc42:MFC42.DLL
 0001:00003ab0       ??0CWnd@@QAE@XZ            10004ab0 f   mfc42:MFC42.DLL
 0001:00003ab6       ??3@YAXPAX@Z               10004ab6 f   mfc42:MFC42.DLL
 0001:00003abc       ??1CListCtrl@@UAE@XZ       10004abc f   mfc42:MFC42.DLL
 0001:00003ac2       ?Default@CWnd@@IAEJXZ      10004ac2 f   mfc42:MFC42.DLL
 0001:00003ac8       ?SetItemState@CListCtrl@@QAEHHII@Z 10004ac8 f   mfc42:MFC42.DLL
 0001:00003ace       ?FromHandle@CWnd@@SGPAV1@PAUHWND__@@@Z 10004ace f   mfc42:MFC42.DLL
 0001:00003ad4       ?PreTranslateMessage@CWnd@@UAEHPAUtagMSG@@@Z 10004ad4 f   mfc42:MFC42.DLL
 0001:00003ada       ?SetFocus@CWnd@@QAEPAV1@XZ 10004ada f   mfc42:MFC42.DLL
 0001:00003ae0       ?MeasureItem@CMenu@@UAEXPAUtagMEASUREITEMSTRUCT@@@Z 10004ae0 f   mfc42:MFC42.DLL
 0001:00003ae6       ?DrawItem@CMenu@@UAEXPAUtagDRAWITEMSTRUCT@@@Z 10004ae6 f   mfc42:MFC42.DLL
 0001:00003aec       ?GetRuntimeClass@CMenu@@UBEPAUCRuntimeClass@@XZ 10004aec f   mfc42:MFC42.DLL
 0001:00003af2       ?DestroyMenu@CMenu@@QAEHXZ 10004af2 f   mfc42:MFC42.DLL
 0001:00003af8       ?TrackPopupMenu@CMenu@@QAEHIHHPAVCWnd@@PBUtagRECT@@@Z 10004af8 f   mfc42:MFC42.DLL
 0001:00003afe       ?FromHandle@CMenu@@SGPAV1@PAUHMENU__@@@Z 10004afe f   mfc42:MFC42.DLL
 0001:00003b04       ?Attach@CMenu@@QAEHPAUHMENU__@@@Z 10004b04 f   mfc42:MFC42.DLL
 0001:00003b0a       ?AfxFindResourceHandle@@YGPAUHINSTANCE__@@PBD0@Z 10004b0a f   mfc42:MFC42.DLL
 0001:00003b10       ??1CDialog@@UAE@XZ         10004b10 f   mfc42:MFC42.DLL
 0001:00003b16       ??1CString@@QAE@XZ         10004b16 f   mfc42:MFC42.DLL
 0001:00003b1c       ?DoModal@CDialog@@UAEHXZ   10004b1c f   mfc42:MFC42.DLL
 0001:00003b22       ?GetRuntimeClass@CObject@@UBEPAUCRuntimeClass@@XZ 10004b22 f   mfc42:MFC42.DLL
 0001:00003b28       ?UpdateData@CWnd@@QAEHH@Z  10004b28 f   mfc42:MFC42.DLL
 0001:00003b2e       ?DeleteItem@CComboBox@@UAEXPAUtagDELETEITEMSTRUCT@@@Z 10004b2e f   mfc42:MFC42.DLL
 0001:00003b34       ?CompareItem@CComboBox@@UAEHPAUtagCOMPAREITEMSTRUCT@@@Z 10004b34 f   mfc42:MFC42.DLL
 0001:00003b3a       ?MeasureItem@CComboBox@@UAEXPAUtagMEASUREITEMSTRUCT@@@Z 10004b3a f   mfc42:MFC42.DLL
 0001:00003b40       ?DrawItem@CComboBox@@UAEXPAUtagDRAWITEMSTRUCT@@@Z 10004b40 f   mfc42:MFC42.DLL
 0001:00003b46       ?OnChildNotify@CComboBox@@MAEHIIJPAJ@Z 10004b46 f   mfc42:MFC42.DLL
 0001:00003b4c       ?GetRuntimeClass@CComboBox@@UBEPAUCRuntimeClass@@XZ 10004b4c f   mfc42:MFC42.DLL
 0001:00003b52       ??1CComboBox@@UAE@XZ       10004b52 f   mfc42:MFC42.DLL
 0001:00003b58       ??4CString@@QAEABV0@PBD@Z  10004b58 f   mfc42:MFC42.DLL
 0001:00003b5e       ?GetLBText@CComboBox@@QBEXHAAVCString@@@Z 10004b5e f   mfc42:MFC42.DLL
 0001:00003b64       ??0CString@@QAE@XZ         10004b64 f   mfc42:MFC42.DLL
 0001:00003b6a       ?PreInitDialog@CDialog@@MAEXXZ 10004b6a f   mfc42:MFC42.DLL
 0001:00003b70       ?OnCancel@CDialog@@MAEXXZ  10004b70 f   mfc42:MFC42.DLL
 0001:00003b76       ?OnOK@CDialog@@MAEXXZ      10004b76 f   mfc42:MFC42.DLL
 0001:00003b7c       ?OnSetFont@CDialog@@UAEXPAVCFont@@@Z 10004b7c f   mfc42:MFC42.DLL
 0001:00003b82       ?OnInitDialog@CDialog@@UAEHXZ 10004b82 f   mfc42:MFC42.DLL
 0001:00003b88       ?SetOccDialogInfo@CDialog@@MAEHPAU_AFX_OCC_DIALOG_INFO@@@Z 10004b88 f   mfc42:MFC42.DLL
 0001:00003b8e       ?CheckAutoCenter@CDialog@@UAEHXZ 10004b8e f   mfc42:MFC42.DLL
 0001:00003b94       ?OnChildNotify@CWnd@@MAEHIIJPAJ@Z 10004b94 f   mfc42:MFC42.DLL
 0001:00003b9a       ?PreTranslateMessage@CDialog@@UAEHPAUtagMSG@@@Z 10004b9a f   mfc42:MFC42.DLL
 0001:00003ba0       ?OnCmdMsg@CDialog@@UAEHIHPAXPAUAFX_CMDHANDLERINFO@@@Z 10004ba0 f   mfc42:MFC42.DLL
 0001:00003ba6       ?GetRuntimeClass@CDialog@@UBEPAUCRuntimeClass@@XZ 10004ba6 f   mfc42:MFC42.DLL
 0001:00003bac       ??0CDialog@@QAE@IPAVCWnd@@@Z 10004bac f   mfc42:MFC42.DLL
 0001:00003bb2       ?DDX_Check@@YGXPAVCDataExchange@@HAAH@Z 10004bb2 f   mfc42:MFC42.DLL
 0001:00003bb8       ?DDX_Radio@@YGXPAVCDataExchange@@HAAH@Z 10004bb8 f   mfc42:MFC42.DLL
 0001:00003bbe       ?DDX_Text@@YGXPAVCDataExchange@@HAAVCString@@@Z 10004bbe f   mfc42:MFC42.DLL
 0001:00003bc4       ?DDX_Control@@YGXPAVCDataExchange@@HAAVCWnd@@@Z 10004bc4 f   mfc42:MFC42.DLL
 0001:00003bca       ?SetWindowTextA@CWnd@@QAEXPBD@Z 10004bca f   mfc42:MFC42.DLL
 0001:00003bd0       ?GetMessageMap@CWnd@@MBEPBUAFX_MSGMAP@@XZ 10004bd0 f   mfc42:MFC42.DLL
 0001:00003bd6       ?GetRuntimeClass@CSliderCtrl@@UBEPAUCRuntimeClass@@XZ 10004bd6 f   mfc42:MFC42.DLL
 0001:00003bdc       ??1CSliderCtrl@@UAE@XZ     10004bdc f   mfc42:MFC42.DLL
 0001:00003be2       ?GetDlgItem@CWnd@@QBEPAV1@H@Z 10004be2 f   mfc42:MFC42.DLL
 0001:00003be8       ?GetItemText@CListCtrl@@QBE?AVCString@@HH@Z 10004be8 f   mfc42:MFC42.DLL
 0001:00003bee       ?EnableWindow@CWnd@@QAEHH@Z 10004bee f   mfc42:MFC42.DLL
 0001:00003bf4       ?InsertColumn@CListCtrl@@QAEHHPBDHHH@Z 10004bf4 f   mfc42:MFC42.DLL
 0001:00003bfa       ?SetRange@CSliderCtrl@@QAEXHHH@Z 10004bfa f   mfc42:MFC42.DLL
 0001:00003c00       ?AfxGetThread@@YGPAVCWinThread@@XZ 10004c00 f   mfc42:MFC42.DLL
 0001:00003c06       ?CharToItem@CListBox@@UAEHII@Z 10004c06 f   mfc42:MFC42.DLL
 0001:00003c0c       ?VKeyToItem@CListBox@@UAEHII@Z 10004c0c f   mfc42:MFC42.DLL
 0001:00003c12       ?DeleteItem@CListBox@@UAEXPAUtagDELETEITEMSTRUCT@@@Z 10004c12 f   mfc42:MFC42.DLL
 0001:00003c18       ?CompareItem@CListBox@@UAEHPAUtagCOMPAREITEMSTRUCT@@@Z 10004c18 f   mfc42:MFC42.DLL
 0001:00003c1e       ?MeasureItem@CListBox@@UAEXPAUtagMEASUREITEMSTRUCT@@@Z 10004c1e f   mfc42:MFC42.DLL
 0001:00003c24       ?DrawItem@CListBox@@UAEXPAUtagDRAWITEMSTRUCT@@@Z 10004c24 f   mfc42:MFC42.DLL
 0001:00003c2a       ?OnChildNotify@CListBox@@MAEHIIJPAJ@Z 10004c2a f   mfc42:MFC42.DLL
 0001:00003c30       ?GetRuntimeClass@CListBox@@UBEPAUCRuntimeClass@@XZ 10004c30 f   mfc42:MFC42.DLL
 0001:00003c36       ??1CListBox@@UAE@XZ        10004c36 f   mfc42:MFC42.DLL
 0001:00003c3c       ?AfxMessageBox@@YGHPBDII@Z 10004c3c f   mfc42:MFC42.DLL
 0001:00003c42       ?EndDialog@CDialog@@QAEXH@Z 10004c42 f   mfc42:MFC42.DLL
 0001:00003c48       ?GetRuntimeClass@CEdit@@UBEPAUCRuntimeClass@@XZ 10004c48 f   mfc42:MFC42.DLL
 0001:00003c4e       ??1CEdit@@UAE@XZ           10004c4e f   mfc42:MFC42.DLL
 0001:00003c54       ?GetWindowTextA@CWnd@@QBEXAAVCString@@@Z 10004c54 f   mfc42:MFC42.DLL
 0001:00003c5a       ?AfxGetModuleState@@YGPAVAFX_MODULE_STATE@@XZ 10004c5a f   mfc42:MFC42.DLL
 0001:00003c60       ?OnGetCheckPosition@CCheckListBox@@UAE?AVCRect@@V2@0@Z 10004c60 f   mfc42:MFC42.DLL
 0001:00003c66       ?MeasureItem@CCheckListBox@@UAEXPAUtagMEASUREITEMSTRUCT@@@Z 10004c66 f   mfc42:MFC42.DLL
 0001:00003c6c       ?DrawItem@CCheckListBox@@UAEXPAUtagDRAWITEMSTRUCT@@@Z 10004c6c f   mfc42:MFC42.DLL
 0001:00003c72       ?OnChildNotify@CCheckListBox@@MAEHIIJPAJ@Z 10004c72 f   mfc42:MFC42.DLL
 0001:00003c78       ?GetRuntimeClass@CCheckListBox@@UBEPAUCRuntimeClass@@XZ 10004c78 f   mfc42:MFC42.DLL
 0001:00003c92       ??0_AFX_DLL_MODULE_STATE@@QAE@XZ 10004c92 f i mfcs42:dllmodul.obj
 0001:00003cb0       ??_E_AFX_DLL_MODULE_STATE@@UAEPAXI@Z 10004cb0 f i mfcs42:dllmodul.obj
 0001:00003cb0       ??_G_AFX_DLL_MODULE_STATE@@UAEPAXI@Z 10004cb0 f i mfcs42:dllmodul.obj
 0001:00003ccb       ??1_AFX_DLL_MODULE_STATE@@UAE@XZ 10004ccb f i mfcs42:dllmodul.obj
 0001:00003ce6       ?AfxWndProcDllStatic@@YGJPAUHWND__@@IIJ@Z 10004ce6 f   mfcs42:dllmodul.obj
 0001:00003d2b       ?AfxGetStaticModuleState@@YGPAVAFX_MODULE_STATE@@XZ 10004d2b f   mfcs42:dllmodul.obj
 0001:00003d31       _DllMain@12                10004d31 f   mfcs42:dllmodul.obj
 0001:00003e58       _RawDllMain@12             10004e58 f   mfcs42:dllmodul.obj
 0001:00003ea9       ??1AFX_MAINTAIN_STATE2@@QAE@XZ 10004ea9 f i mfcs42:dllmodul.obj
 0001:00003eb2       ___CxxFrameHandler         10004eb2 f   msvcrt:MSVCRT.dll
 0001:00003ec0       _sprintf                   10004ec0 f   msvcrt:MSVCRT.dll
 0001:00003ec6       __ftol                     10004ec6 f   msvcrt:MSVCRT.dll
 0001:00003ecc       ??0type_info@@AAE@ABV0@@Z  10004ecc f   msvcrt:ti_inst.obj
 0001:00003ed7       ??_Gtype_info@@UAEPAXI@Z   10004ed7 f i msvcrt:ti_inst.obj
 0001:00003ed7       ??_Etype_info@@UAEPAXI@Z   10004ed7 f i msvcrt:ti_inst.obj
 0001:00003ef3       ??4type_info@@AAEAAV0@ABV0@@Z 10004ef3 f   msvcrt:ti_inst.obj
 0001:00003ef8       __CRT_INIT@12              10004ef8 f   msvcrt:crtdll.obj
 0001:00003fa3       __DllMainCRTStartup@12     10004fa3 f   msvcrt:crtdll.obj
 0001:00004040       __onexit                   10005040 f   msvcrt:atonexit.obj
 0001:0000406c       _atexit                    1000506c f   msvcrt:atonexit.obj
 0001:0000407e       __EH_prolog                1000507e f   msvcrt:MSVCRT.dll
 0001:00004084       ??2@YAPAXI@Z               10005084 f   msvcrt:MSVCRT.dll
 0001:0000408a       ??1type_info@@UAE@XZ       1000508a f   msvcrt:MSVCRT.dll
 0001:00004090       _free                      10005090 f   msvcrt:MSVCRT.dll
 0001:00004096       __initterm                 10005096 f   msvcrt:MSVCRT.dll
 0001:0000409c       _malloc                    1000509c f   msvcrt:MSVCRT.dll
 0001:000040a2       ___dllonexit               100050a2 f   msvcrt:MSVCRT.dll
 0001:000040a8       _GetProcAddress@8          100050a8 f   kernel32:KERNEL32.dll
 0001:000040ae       _GetLastError@0            100050ae f   kernel32:KERNEL32.dll
 0001:000040b4       _LoadLibraryA@4            100050b4 f   kernel32:KERNEL32.dll
 0001:000040ba       _GetModuleHandleA@4        100050ba f   kernel32:KERNEL32.dll
 0001:000040c0       _LocalFree@4               100050c0 f   kernel32:KERNEL32.dll
 0001:000040c6       _LocalAlloc@8              100050c6 f   kernel32:KERNEL32.dll
 0001:000040cc       _SendMessageA@16           100050cc f   user32:USER32.dll
 0001:000040d2       _GetParent@4               100050d2 f   user32:USER32.dll
 0001:000040d8       _GetSubMenu@8              100050d8 f   user32:USER32.dll
 0001:000040de       _LoadMenuA@8               100050de f   user32:USER32.dll
 0001:000040e4       _EnableWindow@8            100050e4 f   user32:USER32.dll
 0001:000040ea       _IsWindow@4                100050ea f   user32:USER32.dll
 0001:000040f0       _GetClientRect@8           100050f0 f   user32:USER32.dll
 0001:000040f6       _PeekMessageA@20           100050f6 f   user32:USER32.dll
 0001:000040fc       _SetActiveWindow@4         100050fc f   user32:USER32.dll
 0001:00004102       _GetAsyncKeyState@4        10005102 f   user32:USER32.dll
 0001:00004108       _GetKeyState@4             10005108 f   user32:USER32.dll
 0001:0000410e       ?FreeMemory@@YAXPAX@Z      1000510e f   Engine:Engine.dll
 0001:00004114       ?GetCompletionString@CShellSymbol@@QBE?AVCTString@@XZ 10005114 f   Engine:Engine.dll
 0001:0000411a       ?StringDuplicate@@YAPADPBD@Z 1000511a f   Engine:Engine.dll
 0001:00004120       ??1CPlayerCharacter@@QAE@XZ 10005120 f   Engine:Engine.dll
 0001:00004126       ??4CPlayerCharacter@@QAEAAV0@ABV0@@Z 10005126 f   Engine:Engine.dll
 0001:0000412c       ??0CPlayerCharacter@@QAE@XZ 1000512c f   Engine:Engine.dll
 0001:00004132       ??1CTString@@QAE@XZ        10005132 f   Engine:Engine.dll
 0001:00004138       ??8@YAHPBDABVCTString@@@Z  10005138 f   Engine:Engine.dll
 0001:0000413e       ?DisableInput@CInput@@QAEXXZ 1000513e f   Engine:Engine.dll
 0001:00004144       ?GetInput@CInput@@QAEXH@Z  10005144 f   Engine:Engine.dll
 0001:0000414a       ?EnableInput@CInput@@QAEXPAUHWND__@@@Z 1000514a f   Engine:Engine.dll
 0001:00004150       ?AddBefore@CListNode@@QAEXAAV1@@Z 10005150 f   Engine:Engine.dll
 0001:00004156       ?Remove@CListNode@@QAEXXZ  10005156 f   Engine:Engine.dll
 0001:0000415c       ?AddAfter@CListNode@@QAEXAAV1@@Z 1000515c f   Engine:Engine.dll
 0001:00004162       ??1CTFileName@@QAE@XZ      10005162 f   Engine:Engine.dll
 0001:00004168       ?PrintF@CTString@@QAAJPBDZZ 10005168 f   Engine:Engine.dll
 0001:0000416e       ?GetBuffer@CConsole@@QAEPBDXZ 1000516e f   Engine:Engine.dll
 0001:00004174       ?AllocMemory@@YAPAXJ@Z     10005174 f   Engine:Engine.dll
 0001:0000417a       ?Execute@CShell@@QAEXABVCTString@@@Z 1000517a f   Engine:Engine.dll
 0001:00004180       ??YCTString@@QAEAAV0@ABV0@@Z 10005180 f   Engine:Engine.dll
 0001:00004186       ?CPrintF@@YAXPBDZZ         10005186 f   Engine:Engine.dll
 0001:0000418c       ?FatalError@@YAXPBDZZ      1000518c f   Engine:Engine.dll
 0001:00004192       ?ThrowF_t@@YAXPADZZ        10005192 f   Engine:Engine.dll
 0001:00004198       ?GetWindowsError@@YA?BVCTString@@K@Z 10005198 f   Engine:Engine.dll
 0001:0000419e       ?ExpandFilePath@@YAJKABVCTFileName@@AAV1@@Z 1000519e f   Engine:Engine.dll
 0001:000041a4       ??0AFX_MODULE_STATE@@QAE@HP6GJPAUHWND__@@IIJ@ZK@Z 100051a4 f   mfc42:MFC42.DLL
 0001:000041aa       ??3CNoTrackObject@@SGXPAX@Z 100051aa f   mfc42:MFC42.DLL
 0001:000041b0       ??1AFX_MODULE_STATE@@UAE@XZ 100051b0 f   mfc42:MFC42.DLL
 0001:000041b6       ?AfxWndProc@@YGJPAUHWND__@@IIJ@Z 100051b6 f   mfc42:MFC42.DLL
 0001:000041bc       ??0AFX_MAINTAIN_STATE2@@QAE@PAVAFX_MODULE_STATE@@@Z 100051bc f   mfc42:MFC42.DLL
 0001:000041c2       ?AfxTermThread@@YGXPAUHINSTANCE__@@@Z 100051c2 f   mfc42:MFC42.DLL
 0001:000041c8       ?AfxTermExtensionModule@@YGXAAUAFX_EXTENSION_MODULE@@H@Z 100051c8 f   mfc42:MFC42.DLL
 0001:000041ce       ?AfxUnlockTempMaps@@YGHH@Z 100051ce f   mfc42:MFC42.DLL
 0001:000041d4       ?AfxLockTempMaps@@YGXXZ    100051d4 f   mfc42:MFC42.DLL
 0001:000041da       ?AfxSetModuleState@@YGPAVAFX_MODULE_STATE@@PAV1@@Z 100051da f   mfc42:MFC42.DLL
 0001:000041e0       ??0CDynLinkLibrary@@QAE@AAUAFX_EXTENSION_MODULE@@H@Z 100051e0 f   mfc42:MFC42.DLL
 0001:000041e6       ?AfxInitExtensionModule@@YGHAAUAFX_EXTENSION_MODULE@@PAUHINSTANCE__@@@Z 100051e6 f   mfc42:MFC42.DLL
 0001:000041ec       ?AfxWinTerm@@YGXXZ         100051ec f   mfc42:MFC42.DLL
 0001:000041f2       ?AfxWinInit@@YGHPAUHINSTANCE__@@0PADH@Z 100051f2 f   mfc42:MFC42.DLL
 0001:000041f8       ?AfxGetThreadState@@YGPAV_AFX_THREAD_STATE@@XZ 100051f8 f   mfc42:MFC42.DLL
 0001:000041fe       ?AfxCoreInitModule@@YGXXZ  100051fe f   mfc42:MFC42.DLL
 0002:00000000       __imp_?GetBuffer@CConsole@@QAEPBDXZ 10006000     Engine:Engine.dll
 0002:00000004       __imp_??1CTFileName@@QAE@XZ 10006004     Engine:Engine.dll
 0002:00000008       __imp_?AddAfter@CListNode@@QAEXAAV1@@Z 10006008     Engine:Engine.dll
 0002:0000000c       __imp_?Remove@CListNode@@QAEXXZ 1000600c     Engine:Engine.dll
 0002:00000010       __imp_?AddBefore@CListNode@@QAEXAAV1@@Z 10006010     Engine:Engine.dll
 0002:00000014       __imp_?EnableInput@CInput@@QAEXPAUHWND__@@@Z 10006014     Engine:Engine.dll
 0002:00000018       __imp_?GetInput@CInput@@QAEXH@Z 10006018     Engine:Engine.dll
 0002:0000001c       __imp_?DisableInput@CInput@@QAEXXZ 1000601c     Engine:Engine.dll
 0002:00000020       __imp_??8@YAHPBDABVCTString@@@Z 10006020     Engine:Engine.dll
 0002:00000024       __imp_?_pInput@@3PAVCInput@@A 10006024     Engine:Engine.dll
 0002:00000028       __imp_??1CTString@@QAE@XZ  10006028     Engine:Engine.dll
 0002:0000002c       __imp_??0CPlayerCharacter@@QAE@XZ 1000602c     Engine:Engine.dll
 0002:00000030       __imp_??4CPlayerCharacter@@QAEAAV0@ABV0@@Z 10006030     Engine:Engine.dll
 0002:00000034       __imp_??1CPlayerCharacter@@QAE@XZ 10006034     Engine:Engine.dll
 0002:00000038       __imp_?StringDuplicate@@YAPADPBD@Z 10006038     Engine:Engine.dll
 0002:0000003c       __imp_?_pShell@@3PAVCShell@@A 1000603c     Engine:Engine.dll
 0002:00000040       __imp_?GetCompletionString@CShellSymbol@@QBE?AVCTString@@XZ 10006040     Engine:Engine.dll
 0002:00000044       __imp_?FreeMemory@@YAXPAX@Z 10006044     Engine:Engine.dll
 0002:00000048       __imp_?AllocMemory@@YAPAXJ@Z 10006048     Engine:Engine.dll
 0002:0000004c       __imp_?_pConsole@@3PAVCConsole@@A 1000604c     Engine:Engine.dll
 0002:00000050       __imp_?Execute@CShell@@QAEXABVCTString@@@Z 10006050     Engine:Engine.dll
 0002:00000054       __imp_??YCTString@@QAEAAV0@ABV0@@Z 10006054     Engine:Engine.dll
 0002:00000058       __imp_?CPrintF@@YAXPBDZZ   10006058     Engine:Engine.dll
 0002:0000005c       __imp_?FatalError@@YAXPBDZZ 1000605c     Engine:Engine.dll
 0002:00000060       __imp_?ThrowF_t@@YAXPADZZ  10006060     Engine:Engine.dll
 0002:00000064       __imp_?GetWindowsError@@YA?BVCTString@@K@Z 10006064     Engine:Engine.dll
 0002:00000068       __imp_?ExpandFilePath@@YAJKABVCTFileName@@AAV1@@Z 10006068     Engine:Engine.dll
 0002:0000006c       __imp_?PrintF@CTString@@QAAJPBDZZ 1000606c     Engine:Engine.dll
 0002:00000070       \177Engine_NULL_THUNK_DATA 10006070     Engine:Engine.dll
 0002:00000074       __imp__LocalFree@4         10006074     kernel32:KERNEL32.dll
 0002:00000078       __imp__GetModuleHandleA@4  10006078     kernel32:KERNEL32.dll
 0002:0000007c       __imp__LoadLibraryA@4      1000607c     kernel32:KERNEL32.dll
 0002:00000080       __imp__GetLastError@0      10006080     kernel32:KERNEL32.dll
 0002:00000084       __imp__GetProcAddress@8    10006084     kernel32:KERNEL32.dll
 0002:00000088       __imp__LocalAlloc@8        10006088     kernel32:KERNEL32.dll
 0002:0000008c       \177KERNEL32_NULL_THUNK_DATA 1000608c     kernel32:KERNEL32.dll
 0002:00000090       __imp_?IsInvokeAllowed@CCmdTarget@@UAEHJ@Z 10006090     mfc42:MFC42.DLL
 0002:00000094       __imp_?OnFinalRelease@CWnd@@UAEXXZ 10006094     mfc42:MFC42.DLL
 0002:00000098       __imp_?OnCmdMsg@CCmdTarget@@UAEHIHPAXPAUAFX_CMDHANDLERINFO@@@Z 10006098     mfc42:MFC42.DLL
 0002:0000009c       __imp_?GetRuntimeClass@CListCtrl@@UBEPAUCRuntimeClass@@XZ 1000609c     mfc42:MFC42.DLL
 0002:000000a0       __imp_??0CWnd@@QAE@XZ      100060a0     mfc42:MFC42.DLL
 0002:000000a4       __imp_??3@YAXPAX@Z         100060a4     mfc42:MFC42.DLL
 0002:000000a8       __imp_??1CListCtrl@@UAE@XZ 100060a8     mfc42:MFC42.DLL
 0002:000000ac       __imp_?messageMap@CListCtrl@@1UAFX_MSGMAP@@B 100060ac     mfc42:MFC42.DLL
 0002:000000b0       __imp_?Default@CWnd@@IAEJXZ 100060b0     mfc42:MFC42.DLL
 0002:000000b4       __imp_?SetItemState@CListCtrl@@QAEHHII@Z 100060b4     mfc42:MFC42.DLL
 0002:000000b8       __imp_?FromHandle@CWnd@@SGPAV1@PAUHWND__@@@Z 100060b8     mfc42:MFC42.DLL
 0002:000000bc       __imp_?PreTranslateMessage@CWnd@@UAEHPAUtagMSG@@@Z 100060bc     mfc42:MFC42.DLL
 0002:000000c0       __imp_?SetFocus@CWnd@@QAEPAV1@XZ 100060c0     mfc42:MFC42.DLL
 0002:000000c4       __imp_?MeasureItem@CMenu@@UAEXPAUtagMEASUREITEMSTRUCT@@@Z 100060c4     mfc42:MFC42.DLL
 0002:000000c8       __imp_?DrawItem@CMenu@@UAEXPAUtagDRAWITEMSTRUCT@@@Z 100060c8     mfc42:MFC42.DLL
 0002:000000cc       __imp_?GetRuntimeClass@CMenu@@UBEPAUCRuntimeClass@@XZ 100060cc     mfc42:MFC42.DLL
 0002:000000d0       __imp_?DestroyMenu@CMenu@@QAEHXZ 100060d0     mfc42:MFC42.DLL
 0002:000000d4       __imp_?TrackPopupMenu@CMenu@@QAEHIHHPAVCWnd@@PBUtagRECT@@@Z 100060d4     mfc42:MFC42.DLL
 0002:000000d8       __imp_?FromHandle@CMenu@@SGPAV1@PAUHMENU__@@@Z 100060d8     mfc42:MFC42.DLL
 0002:000000dc       __imp_?Attach@CMenu@@QAEHPAUHMENU__@@@Z 100060dc     mfc42:MFC42.DLL
 0002:000000e0       __imp_?AfxFindResourceHandle@@YGPAUHINSTANCE__@@PBD0@Z 100060e0     mfc42:MFC42.DLL
 0002:000000e4       __imp_??1CDialog@@UAE@XZ   100060e4     mfc42:MFC42.DLL
 0002:000000e8       __imp_??1CString@@QAE@XZ   100060e8     mfc42:MFC42.DLL
 0002:000000ec       __imp_?DoModal@CDialog@@UAEHXZ 100060ec     mfc42:MFC42.DLL
 0002:000000f0       __imp_?GetRuntimeClass@CObject@@UBEPAUCRuntimeClass@@XZ 100060f0     mfc42:MFC42.DLL
 0002:000000f4       __imp_?UpdateData@CWnd@@QAEHH@Z 100060f4     mfc42:MFC42.DLL
 0002:000000f8       __imp_?DeleteItem@CComboBox@@UAEXPAUtagDELETEITEMSTRUCT@@@Z 100060f8     mfc42:MFC42.DLL
 0002:000000fc       __imp_?CompareItem@CComboBox@@UAEHPAUtagCOMPAREITEMSTRUCT@@@Z 100060fc     mfc42:MFC42.DLL
 0002:00000100       __imp_?MeasureItem@CComboBox@@UAEXPAUtagMEASUREITEMSTRUCT@@@Z 10006100     mfc42:MFC42.DLL
 0002:00000104       __imp_?DrawItem@CComboBox@@UAEXPAUtagDRAWITEMSTRUCT@@@Z 10006104     mfc42:MFC42.DLL
 0002:00000108       __imp_?OnChildNotify@CComboBox@@MAEHIIJPAJ@Z 10006108     mfc42:MFC42.DLL
 0002:0000010c       __imp_?GetRuntimeClass@CComboBox@@UBEPAUCRuntimeClass@@XZ 1000610c     mfc42:MFC42.DLL
 0002:00000110       __imp_??1CComboBox@@UAE@XZ 10006110     mfc42:MFC42.DLL
 0002:00000114       __imp_?messageMap@CWnd@@1UAFX_MSGMAP@@B 10006114     mfc42:MFC42.DLL
 0002:00000118       __imp_??4CString@@QAEABV0@PBD@Z 10006118     mfc42:MFC42.DLL
 0002:0000011c       __imp_?GetLBText@CComboBox@@QBEXHAAVCString@@@Z 1000611c     mfc42:MFC42.DLL
 0002:00000120       __imp_??0CString@@QAE@XZ   10006120     mfc42:MFC42.DLL
 0002:00000124       __imp_?PreInitDialog@CDialog@@MAEXXZ 10006124     mfc42:MFC42.DLL
 0002:00000128       __imp_?OnCancel@CDialog@@MAEXXZ 10006128     mfc42:MFC42.DLL
 0002:0000012c       __imp_?OnOK@CDialog@@MAEXXZ 1000612c     mfc42:MFC42.DLL
 0002:00000130       __imp_?OnSetFont@CDialog@@UAEXPAVCFont@@@Z 10006130     mfc42:MFC42.DLL
 0002:00000134       __imp_?OnInitDialog@CDialog@@UAEHXZ 10006134     mfc42:MFC42.DLL
 0002:00000138       __imp_?SetOccDialogInfo@CDialog@@MAEHPAU_AFX_OCC_DIALOG_INFO@@@Z 10006138     mfc42:MFC42.DLL
 0002:0000013c       __imp_?CheckAutoCenter@CDialog@@UAEHXZ 1000613c     mfc42:MFC42.DLL
 0002:00000140       __imp_?OnChildNotify@CWnd@@MAEHIIJPAJ@Z 10006140     mfc42:MFC42.DLL
 0002:00000144       __imp_?PreTranslateMessage@CDialog@@UAEHPAUtagMSG@@@Z 10006144     mfc42:MFC42.DLL
 0002:00000148       __imp_?OnCmdMsg@CDialog@@UAEHIHPAXPAUAFX_CMDHANDLERINFO@@@Z 10006148     mfc42:MFC42.DLL
 0002:0000014c       __imp_?GetRuntimeClass@CDialog@@UBEPAUCRuntimeClass@@XZ 1000614c     mfc42:MFC42.DLL
 0002:00000150       __imp_??0CDialog@@QAE@IPAVCWnd@@@Z 10006150     mfc42:MFC42.DLL
 0002:00000154       __imp_?GetDispatchIID@CCmdTarget@@UAEHPAU_GUID@@@Z 10006154     mfc42:MFC42.DLL
 0002:00000158       __imp_?GetInterfaceMap@CCmdTarget@@MBEPBUAFX_INTERFACEMAP@@XZ 10006158     mfc42:MFC42.DLL
 0002:0000015c       __imp_?messageMap@CDialog@@1UAFX_MSGMAP@@B 1000615c     mfc42:MFC42.DLL
 0002:00000160       __imp_?DDX_Text@@YGXPAVCDataExchange@@HAAVCString@@@Z 10006160     mfc42:MFC42.DLL
 0002:00000164       __imp_?DDX_Control@@YGXPAVCDataExchange@@HAAVCWnd@@@Z 10006164     mfc42:MFC42.DLL
 0002:00000168       __imp_?SetWindowTextA@CWnd@@QAEXPBD@Z 10006168     mfc42:MFC42.DLL
 0002:0000016c       __imp_?GetMessageMap@CWnd@@MBEPBUAFX_MSGMAP@@XZ 1000616c     mfc42:MFC42.DLL
 0002:00000170       __imp_?GetRuntimeClass@CSliderCtrl@@UBEPAUCRuntimeClass@@XZ 10006170     mfc42:MFC42.DLL
 0002:00000174       __imp_??1CSliderCtrl@@UAE@XZ 10006174     mfc42:MFC42.DLL
 0002:00000178       __imp_?GetDlgItem@CWnd@@QBEPAV1@H@Z 10006178     mfc42:MFC42.DLL
 0002:0000017c       __imp_?GetItemText@CListCtrl@@QBE?AVCString@@HH@Z 1000617c     mfc42:MFC42.DLL
 0002:00000180       __imp_?EnableWindow@CWnd@@QAEHH@Z 10006180     mfc42:MFC42.DLL
 0002:00000184       __imp_?InsertColumn@CListCtrl@@QAEHHPBDHHH@Z 10006184     mfc42:MFC42.DLL
 0002:00000188       __imp_?SetRange@CSliderCtrl@@QAEXHHH@Z 10006188     mfc42:MFC42.DLL
 0002:0000018c       __imp_?AfxGetThread@@YGPAVCWinThread@@XZ 1000618c     mfc42:MFC42.DLL
 0002:00000190       __imp_?CharToItem@CListBox@@UAEHII@Z 10006190     mfc42:MFC42.DLL
 0002:00000194       __imp_?VKeyToItem@CListBox@@UAEHII@Z 10006194     mfc42:MFC42.DLL
 0002:00000198       __imp_?DeleteItem@CListBox@@UAEXPAUtagDELETEITEMSTRUCT@@@Z 10006198     mfc42:MFC42.DLL
 0002:0000019c       __imp_?CompareItem@CListBox@@UAEHPAUtagCOMPAREITEMSTRUCT@@@Z 1000619c     mfc42:MFC42.DLL
 0002:000001a0       __imp_?MeasureItem@CListBox@@UAEXPAUtagMEASUREITEMSTRUCT@@@Z 100061a0     mfc42:MFC42.DLL
 0002:000001a4       __imp_?DrawItem@CListBox@@UAEXPAUtagDRAWITEMSTRUCT@@@Z 100061a4     mfc42:MFC42.DLL
 0002:000001a8       __imp_?OnChildNotify@CListBox@@MAEHIIJPAJ@Z 100061a8     mfc42:MFC42.DLL
 0002:000001ac       __imp_?GetRuntimeClass@CListBox@@UBEPAUCRuntimeClass@@XZ 100061ac     mfc42:MFC42.DLL
 0002:000001b0       __imp_??1CListBox@@UAE@XZ  100061b0     mfc42:MFC42.DLL
 0002:000001b4       __imp_?AfxMessageBox@@YGHPBDII@Z 100061b4     mfc42:MFC42.DLL
 0002:000001b8       __imp_?EndDialog@CDialog@@QAEXH@Z 100061b8     mfc42:MFC42.DLL
 0002:000001bc       __imp_?GetRuntimeClass@CEdit@@UBEPAUCRuntimeClass@@XZ 100061bc     mfc42:MFC42.DLL
 0002:000001c0       __imp_??1CEdit@@UAE@XZ     100061c0     mfc42:MFC42.DLL
 0002:000001c4       __imp_?GetWindowTextA@CWnd@@QBEXAAVCString@@@Z 100061c4     mfc42:MFC42.DLL
 0002:000001c8       __imp_?AfxGetModuleState@@YGPAVAFX_MODULE_STATE@@XZ 100061c8     mfc42:MFC42.DLL
 0002:000001cc       __imp_?OnGetCheckPosition@CCheckListBox@@UAE?AVCRect@@V2@0@Z 100061cc     mfc42:MFC42.DLL
 0002:000001d0       __imp_?MeasureItem@CCheckListBox@@UAEXPAUtagMEASUREITEMSTRUCT@@@Z 100061d0     mfc42:MFC42.DLL
 0002:000001d4       __imp_?DrawItem@CCheckListBox@@UAEXPAUtagDRAWITEMSTRUCT@@@Z 100061d4     mfc42:MFC42.DLL
 0002:000001d8       __imp_?OnChildNotify@CCheckListBox@@MAEHIIJPAJ@Z 100061d8     mfc42:MFC42.DLL
 0002:000001dc       __imp_?GetRuntimeClass@CCheckListBox@@UBEPAUCRuntimeClass@@XZ 100061dc     mfc42:MFC42.DLL
 0002:000001e0       __imp_?messageMap@CCheckListBox@@1UAFX_MSGMAP@@B 100061e0     mfc42:MFC42.DLL
 0002:000001e4       __imp_?AfxGetThreadState@@YGPAV_AFX_THREAD_STATE@@XZ 100061e4     mfc42:MFC42.DLL
 0002:000001e8       __imp_?AfxWinInit@@YGHPAUHINSTANCE__@@0PADH@Z 100061e8     mfc42:MFC42.DLL
 0002:000001ec       __imp_?AfxWinTerm@@YGXXZ   100061ec     mfc42:MFC42.DLL
 0002:000001f0       __imp_?AfxInitExtensionModule@@YGHAAUAFX_EXTENSION_MODULE@@PAUHINSTANCE__@@@Z 100061f0     mfc42:MFC42.DLL
 0002:000001f4       __imp_??0CDynLinkLibrary@@QAE@AAUAFX_EXTENSION_MODULE@@H@Z 100061f4     mfc42:MFC42.DLL
 0002:000001f8       __imp_?AfxSetModuleState@@YGPAVAFX_MODULE_STATE@@PAV1@@Z 100061f8     mfc42:MFC42.DLL
 0002:000001fc       __imp_?AfxLockTempMaps@@YGXXZ 100061fc     mfc42:MFC42.DLL
 0002:00000200       __imp_?AfxUnlockTempMaps@@YGHH@Z 10006200     mfc42:MFC42.DLL
 0002:00000204       __imp_?AfxTermExtensionModule@@YGXAAUAFX_EXTENSION_MODULE@@H@Z 10006204     mfc42:MFC42.DLL
 0002:00000208       __imp_?AfxTermThread@@YGXPAUHINSTANCE__@@@Z 10006208     mfc42:MFC42.DLL
 0002:0000020c       __imp_??0AFX_MAINTAIN_STATE2@@QAE@PAVAFX_MODULE_STATE@@@Z 1000620c     mfc42:MFC42.DLL
 0002:00000210       __imp_?AfxWndProc@@YGJPAUHWND__@@IIJ@Z 10006210     mfc42:MFC42.DLL
 0002:00000214       __imp_??1AFX_MODULE_STATE@@UAE@XZ 10006214     mfc42:MFC42.DLL
 0002:00000218       __imp_?GetTypeInfoCount@CCmdTarget@@UAEIXZ 10006218     mfc42:MFC42.DLL
 0002:0000021c       __imp_?GetTypeLibCache@CCmdTarget@@UAEPAVCTypeLibCache@@XZ 1000621c     mfc42:MFC42.DLL
 0002:00000220       __imp_?GetTypeLib@CCmdTarget@@UAEJKPAPAUITypeLib@@@Z 10006220     mfc42:MFC42.DLL
 0002:00000224       __imp_?GetCommandMap@CCmdTarget@@MBEPBUAFX_OLECMDMAP@@XZ 10006224     mfc42:MFC42.DLL
 0002:00000228       __imp_?GetDispatchMap@CCmdTarget@@MBEPBUAFX_DISPMAP@@XZ 10006228     mfc42:MFC42.DLL
 0002:0000022c       __imp_?DDX_Check@@YGXPAVCDataExchange@@HAAH@Z 1000622c     mfc42:MFC42.DLL
 0002:00000230       __imp_?GetConnectionMap@CCmdTarget@@MBEPBUAFX_CONNECTIONMAP@@XZ 10006230     mfc42:MFC42.DLL
 0002:00000234       __imp_??3CNoTrackObject@@SGXPAX@Z 10006234     mfc42:MFC42.DLL
 0002:00000238       __imp_??0AFX_MODULE_STATE@@QAE@HP6GJPAUHWND__@@IIJ@ZK@Z 10006238     mfc42:MFC42.DLL
 0002:0000023c       __imp_?GetEventSinkMap@CCmdTarget@@MBEPBUAFX_EVENTSINKMAP@@XZ 1000623c     mfc42:MFC42.DLL
 0002:00000240       __imp_?OnCreateAggregates@CCmdTarget@@UAEHXZ 10006240     mfc42:MFC42.DLL
 0002:00000244       __imp_?GetInterfaceHook@CCmdTarget@@UAEPAUIUnknown@@PBX@Z 10006244     mfc42:MFC42.DLL
 0002:00000248       __imp_?GetExtraConnectionPoints@CCmdTarget@@MAEHPAVCPtrArray@@@Z 10006248     mfc42:MFC42.DLL
 0002:0000024c       __imp_?GetConnectionHook@CCmdTarget@@MAEPAUIConnectionPoint@@ABU_GUID@@@Z 1000624c     mfc42:MFC42.DLL
 0002:00000250       __imp_?PreSubclassWindow@CWnd@@UAEXXZ 10006250     mfc42:MFC42.DLL
 0002:00000254       __imp_?Create@CWnd@@UAEHPBD0KABUtagRECT@@PAV1@IPAUCCreateContext@@@Z 10006254     mfc42:MFC42.DLL
 0002:00000258       __imp_?DestroyWindow@CWnd@@UAEHXZ 10006258     mfc42:MFC42.DLL
 0002:0000025c       __imp_?PreCreateWindow@CWnd@@UAEHAAUtagCREATESTRUCTA@@@Z 1000625c     mfc42:MFC42.DLL
 0002:00000260       __imp_?CalcWindowRect@CWnd@@UAEXPAUtagRECT@@I@Z 10006260     mfc42:MFC42.DLL
 0002:00000264       __imp_?OnToolHitTest@CWnd@@UBEHVCPoint@@PAUtagTOOLINFOA@@@Z 10006264     mfc42:MFC42.DLL
 0002:00000268       __imp_?GetScrollBarCtrl@CWnd@@UBEPAVCScrollBar@@H@Z 10006268     mfc42:MFC42.DLL
 0002:0000026c       __imp_?WinHelpA@CWnd@@UAEXKI@Z 1000626c     mfc42:MFC42.DLL
 0002:00000270       __imp_?ContinueModal@CWnd@@UAEHXZ 10006270     mfc42:MFC42.DLL
 0002:00000274       __imp_?EndModalLoop@CWnd@@UAEXH@Z 10006274     mfc42:MFC42.DLL
 0002:00000278       __imp_?OnCommand@CWnd@@MAEHIJ@Z 10006278     mfc42:MFC42.DLL
 0002:0000027c       __imp_?OnNotify@CWnd@@MAEHIJPAJ@Z 1000627c     mfc42:MFC42.DLL
 0002:00000280       __imp_?GetSuperWndProcAddr@CWnd@@MAEPAP6GJPAUHWND__@@IIJ@ZXZ 10006280     mfc42:MFC42.DLL
 0002:00000284       __imp_?OnAmbientProperty@CWnd@@UAEHPAVCOleControlSite@@JPAUtagVARIANT@@@Z 10006284     mfc42:MFC42.DLL
 0002:00000288       __imp_?WindowProc@CWnd@@MAEJIIJ@Z 10006288     mfc42:MFC42.DLL
 0002:0000028c       __imp_?OnWndMsg@CWnd@@MAEHIIJPAJ@Z 1000628c     mfc42:MFC42.DLL
 0002:00000290       __imp_?DefWindowProcA@CWnd@@MAEJIIJ@Z 10006290     mfc42:MFC42.DLL
 0002:00000294       __imp_?PostNcDestroy@CWnd@@MAEXXZ 10006294     mfc42:MFC42.DLL
 0002:00000298       __imp_?OnChildNotify@CListCtrl@@MAEHIIJPAJ@Z 10006298     mfc42:MFC42.DLL
 0002:0000029c       __imp_?CheckAutoCenter@CWnd@@UAEHXZ 1000629c     mfc42:MFC42.DLL
 0002:000002a0       __imp_?IsFrameWnd@CWnd@@UBEHXZ 100062a0     mfc42:MFC42.DLL
 0002:000002a4       __imp_?SetOccDialogInfo@CWnd@@MAEHPAU_AFX_OCC_DIALOG_INFO@@@Z 100062a4     mfc42:MFC42.DLL
 0002:000002a8       __imp_?DDX_Radio@@YGXPAVCDataExchange@@HAAH@Z 100062a8     mfc42:MFC42.DLL
 0002:000002ac       __imp_?DrawItem@CListCtrl@@UAEXPAUtagDRAWITEMSTRUCT@@@Z 100062ac     mfc42:MFC42.DLL
 0002:000002b0       __imp_?AfxCoreInitModule@@YGXXZ 100062b0     mfc42:MFC42.DLL
 0002:000002b4       \177MFC42_NULL_THUNK_DATA  100062b4     mfc42:MFC42.DLL
 0002:000002b8       __imp____CxxFrameHandler   100062b8     msvcrt:MSVCRT.dll
 0002:000002bc       __imp__sprintf             100062bc     msvcrt:MSVCRT.dll
 0002:000002c0       __imp___ftol               100062c0     msvcrt:MSVCRT.dll
 0002:000002c4       __imp___EH_prolog          100062c4     msvcrt:MSVCRT.dll
 0002:000002c8       __imp_??2@YAPAXI@Z         100062c8     msvcrt:MSVCRT.dll
 0002:000002cc       __imp_??1type_info@@UAE@XZ 100062cc     msvcrt:MSVCRT.dll
 0002:000002d0       __imp__free                100062d0     msvcrt:MSVCRT.dll
 0002:000002d4       __imp___initterm           100062d4     msvcrt:MSVCRT.dll
 0002:000002d8       __imp__malloc              100062d8     msvcrt:MSVCRT.dll
 0002:000002dc       __imp___adjust_fdiv        100062dc     msvcrt:MSVCRT.dll
 0002:000002e0       __imp____dllonexit         100062e0     msvcrt:MSVCRT.dll
 0002:000002e4       __imp___onexit             100062e4     msvcrt:MSVCRT.dll
 0002:000002e8       \177MSVCRT_NULL_THUNK_DATA 100062e8     msvcrt:MSVCRT.dll
 0002:000002ec       __imp__SendMessageA@16     100062ec     user32:USER32.dll
 0002:000002f0       __imp__GetParent@4         100062f0     user32:USER32.dll
 0002:000002f4       __imp__GetSubMenu@8        100062f4     user32:USER32.dll
 0002:000002f8       __imp__LoadMenuA@8         100062f8     user32:USER32.dll
 0002:000002fc       __imp__EnableWindow@8      100062fc     user32:USER32.dll
 0002:00000300       __imp__IsWindow@4          10006300     user32:USER32.dll
 0002:00000304       __imp__GetClientRect@8     10006304     user32:USER32.dll
 0002:00000308       __imp__PeekMessageA@20     10006308     user32:USER32.dll
 0002:0000030c       __imp__SetActiveWindow@4   1000630c     user32:USER32.dll
 0002:00000310       __imp__GetAsyncKeyState@4  10006310     user32:USER32.dll
 0002:00000314       __imp__GetKeyState@4       10006314     user32:USER32.dll
 0002:00000318       \177USER32_NULL_THUNK_DATA 10006318     user32:USER32.dll
 0002:00000340       ?messageMap@CActionsListControl@@1UAFX_MSGMAP@@B 10006340     ActionsListControl.obj
 0002:00000348       ?_messageEntries@CActionsListControl@@0QBUAFX_MSGMAP_ENTRY@@B 10006348     ActionsListControl.obj
 0002:00000468       ??_7CActionsListControl@@6B@ 10006468     ActionsListControl.obj
 0002:0000052c       ??_7CMenu@@6B@             1000652c     ActionsListControl.obj
 0002:00000548       ??_7CObject@@6B@           10006548     ActionsListControl.obj
 0002:00000560       ?messageMap@CAxisListCtrl@@1UAFX_MSGMAP@@B 10006560     AxisListCtrl.obj
 0002:00000568       ?_messageEntries@CAxisListCtrl@@0QBUAFX_MSGMAP_ENTRY@@B 10006568     AxisListCtrl.obj
 0002:000005f8       ??_7CAxisListCtrl@@6B@     100065f8     AxisListCtrl.obj
 0002:000006c0       ?messageMap@CConsoleSymbolsCombo@@1UAFX_MSGMAP@@B 100066c0     ConsoleSymbolsCombo.obj
 0002:000006c8       ?_messageEntries@CConsoleSymbolsCombo@@0QBUAFX_MSGMAP_ENTRY@@B 100066c8     ConsoleSymbolsCombo.obj
 0002:000006f8       ??_7CConsoleSymbolsCombo@@6B@ 100066f8     ConsoleSymbolsCombo.obj
 0002:000007c8       ?messageMap@CDlgAudioQuality@@1UAFX_MSGMAP@@B 100067c8     DlgAudioQuality.obj
 0002:000007d0       ?_messageEntries@CDlgAudioQuality@@0QBUAFX_MSGMAP_ENTRY@@B 100067d0     DlgAudioQuality.obj
 0002:000007e8       ??_7CDlgAudioQuality@@6B@  100067e8     DlgAudioQuality.obj
 0002:000008c0       ?messageMap@CDlgConsole@@1UAFX_MSGMAP@@B 100068c0     DlgConsole.obj
 0002:000008c8       ?_messageEntries@CDlgConsole@@0QBUAFX_MSGMAP_ENTRY@@B 100068c8     DlgConsole.obj
 0002:000008e0       ??_7CDlgConsole@@6B@       100068e0     DlgConsole.obj
 0002:000009b8       ?messageMap@CDlgEditButtonAction@@1UAFX_MSGMAP@@B 100069b8     DlgEditButtonAction.obj
 0002:000009c0       ?_messageEntries@CDlgEditButtonAction@@0QBUAFX_MSGMAP_ENTRY@@B 100069c0     DlgEditButtonAction.obj
 0002:000009d8       ??_7CDlgEditButtonAction@@6B@ 100069d8     DlgEditButtonAction.obj
 0002:00000ab0       ?messageMap@CDlgPlayerAppearance@@1UAFX_MSGMAP@@B 10006ab0     DlgPlayerAppearance.obj
 0002:00000ab8       ?_messageEntries@CDlgPlayerAppearance@@0QBUAFX_MSGMAP_ENTRY@@B 10006ab8     DlgPlayerAppearance.obj
 0002:00000ad0       ??_7CDlgPlayerAppearance@@6B@ 10006ad0     DlgPlayerAppearance.obj
 0002:00000ba8       ??_7CComboBox@@6B@         10006ba8     DlgPlayerAppearance.obj
 0002:00000c78       ?messageMap@CDlgPlayerControls@@1UAFX_MSGMAP@@B 10006c78     DlgPlayerControls.obj
 0002:00000c80       ?_messageEntries@CDlgPlayerControls@@0QBUAFX_MSGMAP_ENTRY@@B 10006c80     DlgPlayerControls.obj
 0002:00000da0       ??_7CDlgPlayerControls@@6B@ 10006da0     DlgPlayerControls.obj
 0002:00000e78       ??_7CSliderCtrl@@6B@       10006e78     DlgPlayerControls.obj
 0002:00000f38       __real@4@3ffd8000000000000000 10006f38     DlgPlayerControls.obj
 0002:00000f40       ?messageMap@CDlgPlayerSettings@@1UAFX_MSGMAP@@B 10006f40     DlgPlayerSettings.obj
 0002:00000f48       ?_messageEntries@CDlgPlayerSettings@@0QBUAFX_MSGMAP_ENTRY@@B 10006f48     DlgPlayerSettings.obj
 0002:00000fc0       ??_7CDlgPlayerSettings@@6B@ 10006fc0     DlgPlayerSettings.obj
 0002:00001098       ??_7CListBox@@6B@          10007098     DlgPlayerSettings.obj
 0002:00001170       ?messageMap@CDlgRenameControls@@1UAFX_MSGMAP@@B 10007170     DlgRenameControls.obj
 0002:00001178       ?_messageEntries@CDlgRenameControls@@0QBUAFX_MSGMAP_ENTRY@@B 10007178     DlgRenameControls.obj
 0002:00001190       ??_7CDlgRenameControls@@6B@ 10007190     DlgRenameControls.obj
 0002:00001268       ?messageMap@CDlgSelectPlayer@@1UAFX_MSGMAP@@B 10007268     DlgSelectPlayer.obj
 0002:00001270       ?_messageEntries@CDlgSelectPlayer@@0QBUAFX_MSGMAP_ENTRY@@B 10007270     DlgSelectPlayer.obj
 0002:000012b8       ??_7CDlgSelectPlayer@@6B@  100072b8     DlgSelectPlayer.obj
 0002:00001390       ?messageMap@CDlgVideoQuality@@1UAFX_MSGMAP@@B 10007390     DlgVideoQuality.obj
 0002:00001398       ?_messageEntries@CDlgVideoQuality@@0QBUAFX_MSGMAP_ENTRY@@B 10007398     DlgVideoQuality.obj
 0002:000013b0       ??_7CDlgVideoQuality@@6B@  100073b0     DlgVideoQuality.obj
 0002:00001488       ?messageMap@CEditConsole@@1UAFX_MSGMAP@@B 10007488     EditConsole.obj
 0002:00001490       ?_messageEntries@CEditConsole@@0QBUAFX_MSGMAP_ENTRY@@B 10007490     EditConsole.obj
 0002:000014a8       ??_7CEditConsole@@6B@      100074a8     EditConsole.obj
 0002:00001568       ?messageMap@CLocalPlayersList@@1UAFX_MSGMAP@@B 10007568     LocalPlayersList.obj
 0002:00001570       ?_messageEntries@CLocalPlayersList@@0QBUAFX_MSGMAP_ENTRY@@B 10007570     LocalPlayersList.obj
 0002:00001588       ??_7CLocalPlayersList@@6B@ 10007588     LocalPlayersList.obj
 0002:00001668       ?messageMap@CPressKeyEditControl@@1UAFX_MSGMAP@@B 10007668     PressKeyEditControl.obj
 0002:00001670       ?_messageEntries@CPressKeyEditControl@@0QBUAFX_MSGMAP_ENTRY@@B 10007670     PressKeyEditControl.obj
 0002:00001688       ??_7CPressKeyEditControl@@6B@ 10007688     PressKeyEditControl.obj
 0002:00001750       ??_7_AFX_DLL_MODULE_STATE@@6B@ 10007750     mfcs42:dllmodul.obj
 0002:00001758       _IID_IDocHostUIHandlerDispatch 10007758     mfcs42:stdafx.obj
 0002:00001768       _IID_IInternalConnection   10007768     mfcs42:stdafx.obj
 0002:00001778       _IID_IAxWinAmbientDispatch 10007778     mfcs42:stdafx.obj
 0002:00001788       _IID_IAxWinHostWindow      10007788     mfcs42:stdafx.obj
 0002:00001798       _IID_IRegistrar            10007798     mfcs42:stdafx.obj
 0002:000017a8       _CLSID_Registrar           100077a8     mfcs42:stdafx.obj
 0002:000017b8       _LIBID_ATLLib              100077b8     mfcs42:stdafx.obj
 0002:000017cc       ??_7type_info@@6B@         100077cc     msvcrt:ti_inst.obj
 0002:000017d0       ??_R1A@?0A@A@CNoTrackObject@@8 100077d0     mfcs42:dllmodul.obj
 0002:000017e8       ??_R1A@?0A@A@AFX_MODULE_STATE@@8 100077e8     mfcs42:dllmodul.obj
 0002:00001800       ??_R1A@?0A@A@_AFX_DLL_MODULE_STATE@@8 10007800     mfcs42:dllmodul.obj
 0002:00001818       ??_R2_AFX_DLL_MODULE_STATE@@8 10007818     mfcs42:dllmodul.obj
 0002:00001828       ??_R3_AFX_DLL_MODULE_STATE@@8 10007828     mfcs42:dllmodul.obj
 0002:00001838       ??_R4_AFX_DLL_MODULE_STATE@@6B@ 10007838     mfcs42:dllmodul.obj
 0002:00001850       ??_R1A@?0A@A@type_info@@8  10007850     msvcrt:ti_inst.obj
 0002:00001868       ??_R2type_info@@8          10007868     msvcrt:ti_inst.obj
 0002:00001870       ??_R3type_info@@8          10007870     msvcrt:ti_inst.obj
 0002:00001880       ??_R4type_info@@6B@        10007880     msvcrt:ti_inst.obj
 0002:00002240       __IMPORT_DESCRIPTOR_MFC42  10008240     mfc42:MFC42.DLL
 0002:00002254       __IMPORT_DESCRIPTOR_MSVCRT 10008254     msvcrt:MSVCRT.dll
 0002:00002268       __IMPORT_DESCRIPTOR_KERNEL32 10008268     kernel32:KERNEL32.dll
 0002:0000227c       __IMPORT_DESCRIPTOR_USER32 1000827c     user32:USER32.dll
 0002:00002290       __IMPORT_DESCRIPTOR_Engine 10008290     Engine:Engine.dll
 0002:000022a4       __NULL_IMPORT_DESCRIPTOR   100082a4     mfc42:MFC42.DLL
 0003:00000000       ___xc_a                    10009000     msvcrt:cinitexe.obj
 0003:00000008       ___xc_z                    10009008     msvcrt:cinitexe.obj
 0003:0000000c       ___xi_a                    1000900c     msvcrt:cinitexe.obj
 0003:00000010       ___xi_z                    10009010     msvcrt:cinitexe.obj
 0003:000000c8       ??_R0PAD@8                 100090c8     DlgPlayerSettings.obj
 0003:00000164       __pRawDllMain              10009164     mfcs42:dllmodul.obj
 0003:00000168       ??_R0?AVCNoTrackObject@@@8 10009168     mfcs42:dllmodul.obj
 0003:00000188       ??_R0?AVAFX_MODULE_STATE@@@8 10009188     mfcs42:dllmodul.obj
 0003:000001a8       ??_R0?AV_AFX_DLL_MODULE_STATE@@@8 100091a8     mfcs42:dllmodul.obj
 0003:000001d0       ?GUID_ATLVer30@ATL@@3U_GUID@@A 100091d0     mfcs42:stdafx.obj
 0003:000001e0       ??_R0?AVtype_info@@@8      100091e0     msvcrt:ti_inst.obj
 0003:00000210       ??_C@_00A@?$AA@            10009210     DlgPlayerSettings.obj
 0003:00000240       ?_GameGUI@@3VCGameGUI@@A   10009240     GameGUI.obj
 0003:00000244       ?_pGame@@3PAVCGame@@A      10009244     GameGUI.obj
 0003:00000248       __afxForceEXCLUDE          10009248     mfcs42:nolib.obj
 0003:000012f4       __afxForceUSRDLL           1000a2f4     mfcs42:dllmodul.obj
 0003:000012f8       ?ATL_CREATE_OBJECT@CComApartment@ATL@@2IA 1000a2f8     mfcs42:stdafx.obj
 0003:00001300       ?m_libid@CComModule@ATL@@2U_GUID@@A 1000a300     mfcs42:stdafx.obj
 0003:00001310       ?_pModule@ATL@@3PAVCComModule@1@A 1000a310     mfcs42:stdafx.obj
 0003:00001314       __afxForceSTDAFX           1000a314     mfcs42:stdafx.obj
 0003:0000131c       __adjust_fdiv              1000a31c     <common>
 0003:00001320       ___onexitend               1000a320     <common>
 0003:00001324       ___onexitbegin             1000a324     <common>

 entry point at        0001:00003fa3

 Static symbols

 0001:00003c7e       _$E375                     10004c7e f   mfcs42:dllmodul.obj
 0001:00003c88       _$E372                     10004c88 f   mfcs42:dllmodul.obj
 0001:00003cd0       _$E374                     10004cd0 f   mfcs42:dllmodul.obj
 0001:00003cdc       _$E373                     10004cdc f   mfcs42:dllmodul.obj
